target datalayout = "e-m:e-p270:32:32-p271:32:32-p272:64:64-i64:64-i128:128-f80:128-n8:16:32:64-S128"
target triple = "x86_64-pc-linux-gnu"

%struct.P9Req = type { ptr, ptr, i16, i64, i32, i64, i64, i64, i32 }

; Function Attrs: nounwind sspstrong uwtable
define dso_local void @v9fs_memread(ptr noundef %0, ptr noundef %1, i64 noundef %2) #0 {
  %4 = alloca ptr, align 8
  %5 = alloca ptr, align 8
  %6 = alloca i64, align 8
  store ptr %0, ptr %4, align 8
  store ptr %1, ptr %5, align 8
  store i64 %2, ptr %6, align 8
  %7 = load ptr, ptr %4, align 8
  %8 = getelementptr inbounds nuw %struct.P9Req, ptr %7, i32 0, i32 0
  %9 = load ptr, ptr %8, align 8
  %10 = load ptr, ptr %4, align 8
  %11 = getelementptr inbounds nuw %struct.P9Req, ptr %10, i32 0, i32 5
  %12 = load i64, ptr %11, align 8
  %13 = load ptr, ptr %4, align 8
  %14 = getelementptr inbounds nuw %struct.P9Req, ptr %13, i32 0, i32 7
  %15 = load i64, ptr %14, align 8
  %16 = add i64 %12, %15
  %17 = load ptr, ptr %5, align 8
  %18 = load i64, ptr %6, align 8
  call void @qtest_memread(ptr noundef %9, i64 noundef %16, ptr noundef %17, i64 noundef %18)
  %19 = load i64, ptr %6, align 8
  %20 = load ptr, ptr %4, align 8
  %21 = getelementptr inbounds nuw %struct.P9Req, ptr %20, i32 0, i32 7
  %22 = load i64, ptr %21, align 8
  %23 = add i64 %22, %19
  store i64 %23, ptr %21, align 8
  ret void
}

; Function Attrs: nounwind sspstrong uwtable
define dso_local void @v9fs_uint8_read(ptr noundef %0, ptr noundef %1) #0 {
  %3 = alloca ptr, align 8
  %4 = alloca ptr, align 8
  store ptr %0, ptr %3, align 8
  store ptr %1, ptr %4, align 8
  %5 = load ptr, ptr %3, align 8
  %6 = load ptr, ptr %4, align 8
  call void @v9fs_memread(ptr noundef %5, ptr noundef %6, i64 noundef 1)
  ret void
}