; Function Attrs: nounwind sspstrong uwtable
define dso_local void @v9fs_uint8_read(ptr noundef captures(none) %0, ptr noundef %1) local_unnamed_addr #1 {
  %3 = load ptr, ptr %0, align 8
  %4 = getelementptr inbounds nuw i8, ptr %0, i64 40
  %5 = load i64, ptr %4, align 8
  %6 = getelementptr inbounds nuw i8, ptr %0, i64 56
  %7 = load i64, ptr %6, align 8
  %8 = add i64 %7, %5
  tail call void @qtest_memread(ptr noundef %3, i64 noundef %8, ptr noundef %1, i64 noundef 1) #14
  %9 = load i64, ptr %6, align 8
  %10 = add i64 %9, 1
  store i64 %10, ptr %6, align 8
  ret void
}